target datalayout = "e-m:e-p270:32:32-p271:32:32-p272:64:64-i64:64-i128:128-f80:128-n8:16:32:64-S128"
target triple = "x86_64-pc-linux-gnu"

%"struct.(anonymous namespace)::t_eigvec" = type { i32, ptr, ptr, ptr, ptr, ptr, float, ptr }

@.str.2 = private unnamed_addr constant [133 x i8] c"generated/home/dtcxzyw/WorkSpace/Projects/compilers/llvm-opt-benchmark/bench/gromacs/gromacs/src/gromacs/essentialdynamics/edsam.cpp\00", align 1
@.str.152 = private unnamed_addr constant [27 x i8] c"initialReferenceProjection\00", align 1

; Function Attrs: inlinehint mustprogress uwtable
define internal void @_ZL13gmx_snew_implIfEvPKcS1_iRPT_m(ptr noundef %0, ptr noundef %1, i32 noundef %2, ptr noundef nonnull align 8 dereferenceable(8) %3, i64 noundef %4) #3 {
  %6 = alloca ptr, align 8
  %7 = alloca ptr, align 8
  %8 = alloca i32, align 4
  %9 = alloca ptr, align 8
  %10 = alloca i64, align 8
  store ptr %0, ptr %6, align 8, !tbaa !285
  store ptr %1, ptr %7, align 8, !tbaa !285
  store i32 %2, ptr %8, align 4, !tbaa !226
  store ptr %3, ptr %9, align 8, !tbaa !289
  store i64 %4, ptr %10, align 8, !tbaa !28
  %11 = load ptr, ptr %6, align 8, !tbaa !285
  %12 = load ptr, ptr %7, align 8, !tbaa !285
  %13 = load i32, ptr %8, align 4, !tbaa !226
  %14 = load i64, ptr %10, align 8, !tbaa !28
  %15 = call noundef ptr @_Z11save_callocPKcS0_imm(ptr noundef %11, ptr noundef %12, i32 noundef %13, i64 noundef %14, i64 noundef 4)
  %16 = load ptr, ptr %9, align 8, !tbaa !289
  store ptr %15, ptr %16, align 8, !tbaa !67
  ret void
}

; Function Attrs: mustprogress uwtable
define internal void @_ZL17copyEvecReferencePN12_GLOBAL__N_18t_eigvecEPf(ptr noundef %0, ptr noundef %1) #4 {
  %3 = alloca ptr, align 8
  %4 = alloca ptr, align 8
  %5 = alloca i32, align 4
  store ptr %0, ptr %3, align 8, !tbaa !244
  store ptr %1, ptr %4, align 8, !tbaa !67
  call void @llvm.lifetime.start.p0(i64 4, ptr %5) #17
  %6 = load ptr, ptr %4, align 8, !tbaa !67
  %7 = icmp eq ptr null, %6
  br i1 %7, label %8, label %13

8:                                                ; preds = %2
  %9 = load ptr, ptr %3, align 8, !tbaa !244
  %10 = getelementptr inbounds nuw %"struct.(anonymous namespace)::t_eigvec", ptr %9, i32 0, i32 0
  %11 = load i32, ptr %10, align 8, !tbaa !246
  %12 = sext i32 %11 to i64
  call void @_ZL13gmx_snew_implIfEvPKcS1_iRPT_m(ptr noundef @.str.152, ptr noundef @.str.2, i32 noundef 2398, ptr noundef nonnull align 8 dereferenceable(8) %4, i64 noundef %12)
  br label %13

13:                                               ; preds = %8, %2
  store i32 0, ptr %5, align 4, !tbaa !226
  br label %14

14:                                               ; preds = %32, %13
  %15 = load i32, ptr %5, align 4, !tbaa !226
  %16 = load ptr, ptr %3, align 8, !tbaa !244
  %17 = getelementptr inbounds nuw %"struct.(anonymous namespace)::t_eigvec", ptr %16, i32 0, i32 0
  %18 = load i32, ptr %17, align 8, !tbaa !246
  %19 = icmp slt i32 %15, %18
  br i1 %19, label %20, label %35

20:                                               ; preds = %14
  %21 = load ptr, ptr %3, align 8, !tbaa !244
  %22 = getelementptr inbounds nuw %"struct.(anonymous namespace)::t_eigvec", ptr %21, i32 0, i32 7
  %23 = load ptr, ptr %22, align 8, !tbaa !485
  %24 = load i32, ptr %5, align 4, !tbaa !226
  %25 = sext i32 %24 to i64
  %26 = getelementptr inbounds float, ptr %23, i64 %25
  %27 = load float, ptr %26, align 4, !tbaa !229
  %28 = load ptr, ptr %4, align 8, !tbaa !67
  %29 = load i32, ptr %5, align 4, !tbaa !226
  %30 = sext i32 %29 to i64
  %31 = getelementptr inbounds float, ptr %28, i64 %30
  store float %27, ptr %31, align 4, !tbaa !229
  br label %32

32:                                               ; preds = %20
  %33 = load i32, ptr %5, align 4, !tbaa !226
  %34 = add nsw i32 %33, 1
  store i32 %34, ptr %5, align 4, !tbaa !226
  br label %14, !llvm.loop !489

35:                                               ; preds = %14
  call void @llvm.lifetime.end.p0(i64 4, ptr %5) #17
  ret void
}