; Function Attrs: mustprogress uwtable
define internal fastcc void @_ZL17copyEvecReferencePN12_GLOBAL__N_18t_eigvecEPf(ptr noundef readonly captures(none) %0, ptr noundef writeonly %1) unnamed_addr #5 {
  %3 = icmp eq ptr %1, null
  br i1 %3, label %4, label %8

4:                                                ; preds = %2
  %5 = load i32, ptr %0, align 8, !tbaa !237
  %6 = sext i32 %5 to i64
  %7 = tail call noundef ptr @_Z11save_callocPKcS0_imm(ptr noundef nonnull @.str.152, ptr noundef nonnull @.str.2, i32 noundef 2398, i64 noundef %6, i64 noundef 4)
  br label %8

8:                                                ; preds = %4, %2
  %.06 = phi ptr [ %7, %4 ], [ %1, %2 ]
  %9 = load i32, ptr %0, align 8, !tbaa !237
  %10 = icmp sgt i32 %9, 0
  br i1 %10, label %.lr.ph, label %._crit_edge

.lr.ph:                                           ; preds = %8
  %11 = getelementptr inbounds nuw i8, ptr %0, i64 56
  %12 = load ptr, ptr %11, align 8, !tbaa !456
  %wide.trip.count = zext nneg i32 %9 to i64
  br label %13

13:                                               ; preds = %.lr.ph, %13
  %indvars.iv = phi i64 [ 0, %.lr.ph ], [ %indvars.iv.next, %13 ]
  %14 = getelementptr inbounds nuw float, ptr %12, i64 %indvars.iv
  %15 = load float, ptr %14, align 4, !tbaa !178
  %16 = getelementptr inbounds nuw float, ptr %.06, i64 %indvars.iv
  store float %15, ptr %16, align 4, !tbaa !178
  %indvars.iv.next = add nuw nsw i64 %indvars.iv, 1
  %exitcond.not = icmp eq i64 %indvars.iv.next, %wide.trip.count
  br i1 %exitcond.not, label %._crit_edge, label %13, !llvm.loop !461

._crit_edge:                                      ; preds = %13, %8
  ret void
}